(lp0
(dp1
S'State'
p2
S'New York'
p3
sS'freq'
p4
(dp5
S'WhyImNotVotingForHillary'
p6
I46
sS'Hillary2016'
p7
I67
sS'HillaryClinton'
p8
I1835
ssa(dp9
g2
S'California'
p10
sg4
(dp11
g6
I12
sg7
I99
sg8
I64
ssa(dp12
g2
S'Florida'
p13
sg4
(dp14
g6
I7
sg7
I51
sg8
I37
ssa(dp15
g2
S'Texas'
p16
sg4
(dp17
g6
I7
sg7
I40
sg8
I24
ssa(dp18
g2
S'Illinois'
p19
sg4
(dp20
g6
I4
sg7
I34
sg8
I16
ssa(dp21
g2
S'New Jersey'
p22
sg4
(dp23
g6
I3
sg7
I25
sg8
I20
ssa(dp24
g2
S'Pennsylvania'
p25
sg4
(dp26
g6
I2
sg7
I37
sg8
I6
ssa(dp27
g2
S'Georgia'
p28
sg4
(dp29
g6
I7
sg7
I20
sg8
I14
ssa.
